; Function Attrs: nounwind uwtable
define internal noundef i32 @run_sao(ptr readnone captures(none) %0, ptr noundef %1, ptr noundef readonly captures(none) %2) #0 {
  %4 = getelementptr inbounds nuw i8, ptr %1, i64 4580552
  %5 = load ptr, ptr %4, align 8, !tbaa !60
  %6 = getelementptr inbounds nuw i8, ptr %5, i64 21288
  %7 = load ptr, ptr %6, align 8, !tbaa !23
  %8 = getelementptr inbounds nuw i8, ptr %7, i64 24
  %9 = load i32, ptr %8, align 8, !tbaa !97
  %10 = getelementptr inbounds nuw i8, ptr %2, i64 20
  %11 = load i32, ptr %10, align 4, !tbaa !82
  %12 = mul nsw i32 %11, %9
  %13 = getelementptr inbounds nuw i8, ptr %2, i64 24
  %14 = load i32, ptr %13, align 8, !tbaa !83
  %15 = mul nsw i32 %14, %9
  %16 = getelementptr inbounds nuw i8, ptr %5, i64 1928
  %17 = load ptr, ptr %16, align 8, !tbaa !87
  %18 = load ptr, ptr %17, align 8, !tbaa !142
  %19 = getelementptr inbounds nuw i8, ptr %18, i64 16175
  %20 = load i8, ptr %19, align 1, !tbaa !185
  %.not = icmp eq i8 %20, 0
  br i1 %.not, label %24, label %21

21:                                               ; preds = %3
  %22 = getelementptr inbounds nuw i8, ptr %2, i64 28
  %23 = load i32, ptr %22, align 4, !tbaa !111
  tail call void @ff_vvc_decode_neighbour(ptr noundef nonnull %1, i32 noundef %12, i32 noundef %15, i32 noundef %11, i32 noundef %14, i32 noundef %23) #7
  tail call void @ff_vvc_sao_filter(ptr noundef nonnull %1, i32 noundef %12, i32 noundef %15) #7
  %.pre = load ptr, ptr %16, align 8, !tbaa !87
  %.pre21 = load ptr, ptr %.pre, align 8, !tbaa !142
  br label %24

24:                                               ; preds = %21, %3
  %25 = phi ptr [ %.pre21, %21 ], [ %18, %3 ]
  %26 = getelementptr inbounds nuw i8, ptr %25, i64 16176
  %27 = load i8, ptr %26, align 8, !tbaa !186
  %.not20 = icmp eq i8 %27, 0
  br i1 %.not20, label %29, label %28

28:                                               ; preds = %24
  tail call void @ff_vvc_alf_copy_ctu_to_hv(ptr noundef nonnull %1, i32 noundef %12, i32 noundef %15) #7
  br label %29

29:                                               ; preds = %28, %24
  ret i32 0
}